target datalayout = "e-m:e-p270:32:32-p271:32:32-p272:64:64-i64:64-i128:128-f80:128-n8:16:32:64-S128"
target triple = "x86_64-pc-linux-gnu"

%"struct.icu_77::UCharNames" = type { i32, i32, i32, i32 }
%"struct.icu_77::AlgorithmicRange" = type { i32, i32, i8, i8, i16 }

@_ZN6icu_77L10uCharNamesE = internal global ptr null, align 8

; Function Attrs: inlinehint mustprogress nounwind uwtable
define internal noundef signext i8 @_ZL9U_FAILURE10UErrorCode(i32 noundef %0) #2 {
  %2 = alloca i32, align 4
  store i32 %0, ptr %2, align 4, !tbaa !13
  %3 = load i32, ptr %2, align 4, !tbaa !13
  %4 = icmp sgt i32 %3, 0
  %5 = zext i1 %4 to i8
  ret i8 %5
}

; Function Attrs: mustprogress uwtable
define void @u_enumCharNames_77(i32 noundef %0, i32 noundef %1, ptr noundef %2, ptr noundef %3, i32 noundef %4, ptr noundef %5) #0 {
  %7 = alloca i32, align 4
  %8 = alloca i32, align 4
  %9 = alloca ptr, align 8
  %10 = alloca ptr, align 8
  %11 = alloca i32, align 4
  %12 = alloca ptr, align 8
  %13 = alloca ptr, align 8
  %14 = alloca ptr, align 8
  %15 = alloca i32, align 4
  %16 = alloca i32, align 4
  store i32 %0, ptr %7, align 4, !tbaa !3
  store i32 %1, ptr %8, align 4, !tbaa !3
  store ptr %2, ptr %9, align 8, !tbaa !12
  store ptr %3, ptr %10, align 8, !tbaa !12
  store i32 %4, ptr %11, align 4, !tbaa !7
  store ptr %5, ptr %12, align 8, !tbaa !12
  call void @llvm.lifetime.start.p0(i64 8, ptr %13) #12
  call void @llvm.lifetime.start.p0(i64 8, ptr %14) #12
  call void @llvm.lifetime.start.p0(i64 4, ptr %15) #12
  %17 = load ptr, ptr %12, align 8, !tbaa !12
  %18 = icmp eq ptr %17, null
  br i1 %18, label %24, label %19

19:                                               ; preds = %6
  %20 = load ptr, ptr %12, align 8, !tbaa !12
  %21 = load i32, ptr %20, align 4, !tbaa !13
  %22 = call noundef signext i8 @_ZL9U_FAILURE10UErrorCode(i32 noundef %21)
  %23 = icmp ne i8 %22, 0
  br i1 %23, label %24, label %25

24:                                               ; preds = %19, %6
  store i32 1, ptr %16, align 4
  br label %154

25:                                               ; preds = %19
  %26 = load i32, ptr %11, align 4, !tbaa !7
  %27 = icmp sge i32 %26, 4
  br i1 %27, label %31, label %28

28:                                               ; preds = %25
  %29 = load ptr, ptr %9, align 8, !tbaa !12
  %30 = icmp eq ptr %29, null
  br i1 %30, label %31, label %33

31:                                               ; preds = %28, %25
  %32 = load ptr, ptr %12, align 8, !tbaa !12
  store i32 1, ptr %32, align 4, !tbaa !13
  store i32 1, ptr %16, align 4
  br label %154

33:                                               ; preds = %28
  %34 = load i32, ptr %8, align 4, !tbaa !3
  %35 = icmp ugt i32 %34, 1114112
  br i1 %35, label %36, label %37

36:                                               ; preds = %33
  store i32 1114112, ptr %8, align 4, !tbaa !3
  br label %37

37:                                               ; preds = %36, %33
  %38 = load i32, ptr %7, align 4, !tbaa !3
  %39 = load i32, ptr %8, align 4, !tbaa !3
  %40 = icmp uge i32 %38, %39
  br i1 %40, label %41, label %42

41:                                               ; preds = %37
  store i32 1, ptr %16, align 4
  br label %154

42:                                               ; preds = %37
  %43 = load ptr, ptr %12, align 8, !tbaa !12
  %44 = call noundef signext i8 @_ZN6icu_77L12isDataLoadedEP10UErrorCode(ptr noundef %43)
  %45 = icmp ne i8 %44, 0
  br i1 %45, label %47, label %46

46:                                               ; preds = %42
  store i32 1, ptr %16, align 4
  br label %154

47:                                               ; preds = %42
  %48 = load ptr, ptr @_ZN6icu_77L10uCharNamesE, align 8, !tbaa !12
  %49 = load ptr, ptr @_ZN6icu_77L10uCharNamesE, align 8, !tbaa !12
  %50 = getelementptr inbounds nuw %"struct.icu_77::UCharNames", ptr %49, i32 0, i32 3
  %51 = load i32, ptr %50, align 4, !tbaa !15
  %52 = zext i32 %51 to i64
  %53 = getelementptr inbounds nuw i8, ptr %48, i64 %52
  store ptr %53, ptr %14, align 8, !tbaa !17
  %54 = load ptr, ptr %14, align 8, !tbaa !17
  %55 = load i32, ptr %54, align 4, !tbaa !3
  store i32 %55, ptr %15, align 4, !tbaa !3
  %56 = load ptr, ptr %14, align 8, !tbaa !17
  %57 = getelementptr inbounds i32, ptr %56, i64 1
  store ptr %57, ptr %13, align 8, !tbaa !12
  br label %58

58:                                               ; preds = %136, %47
  %59 = load i32, ptr %15, align 4, !tbaa !3
  %60 = icmp ugt i32 %59, 0
  br i1 %60, label %61, label %146

61:                                               ; preds = %58
  %62 = load i32, ptr %7, align 4, !tbaa !3
  %63 = load ptr, ptr %13, align 8, !tbaa !12
  %64 = getelementptr inbounds nuw %"struct.icu_77::AlgorithmicRange", ptr %63, i32 0, i32 0
  %65 = load i32, ptr %64, align 4, !tbaa !19
  %66 = icmp ult i32 %62, %65
  br i1 %66, label %67, label %97

67:                                               ; preds = %61
  %68 = load i32, ptr %8, align 4, !tbaa !3
  %69 = load ptr, ptr %13, align 8, !tbaa !12
  %70 = getelementptr inbounds nuw %"struct.icu_77::AlgorithmicRange", ptr %69, i32 0, i32 0
  %71 = load i32, ptr %70, align 4, !tbaa !19
  %72 = icmp ule i32 %68, %71
  br i1 %72, label %73, label %81

73:                                               ; preds = %67
  %74 = load ptr, ptr @_ZN6icu_77L10uCharNamesE, align 8, !tbaa !12
  %75 = load i32, ptr %7, align 4, !tbaa !3
  %76 = load i32, ptr %8, align 4, !tbaa !3
  %77 = load ptr, ptr %9, align 8, !tbaa !12
  %78 = load ptr, ptr %10, align 8, !tbaa !12
  %79 = load i32, ptr %11, align 4, !tbaa !7
  %80 = call noundef signext i8 @_ZN6icu_77L9enumNamesEPNS_10UCharNamesEiiPFaPvi15UCharNameChoicePKciES2_S3_(ptr noundef %74, i32 noundef %75, i32 noundef %76, ptr noundef %77, ptr noundef %78, i32 noundef %79)
  store i32 1, ptr %16, align 4
  br label %154

81:                                               ; preds = %67
  %82 = load ptr, ptr @_ZN6icu_77L10uCharNamesE, align 8, !tbaa !12
  %83 = load i32, ptr %7, align 4, !tbaa !3
  %84 = load ptr, ptr %13, align 8, !tbaa !12
  %85 = getelementptr inbounds nuw %"struct.icu_77::AlgorithmicRange", ptr %84, i32 0, i32 0
  %86 = load i32, ptr %85, align 4, !tbaa !19
  %87 = load ptr, ptr %9, align 8, !tbaa !12
  %88 = load ptr, ptr %10, align 8, !tbaa !12
  %89 = load i32, ptr %11, align 4, !tbaa !7
  %90 = call noundef signext i8 @_ZN6icu_77L9enumNamesEPNS_10UCharNamesEiiPFaPvi15UCharNameChoicePKciES2_S3_(ptr noundef %82, i32 noundef %83, i32 noundef %86, ptr noundef %87, ptr noundef %88, i32 noundef %89)
  %91 = icmp ne i8 %90, 0
  br i1 %91, label %93, label %92

92:                                               ; preds = %81
  store i32 1, ptr %16, align 4
  br label %154

93:                                               ; preds = %81
  %94 = load ptr, ptr %13, align 8, !tbaa !12
  %95 = getelementptr inbounds nuw %"struct.icu_77::AlgorithmicRange", ptr %94, i32 0, i32 0
  %96 = load i32, ptr %95, align 4, !tbaa !19
  store i32 %96, ptr %7, align 4, !tbaa !3
  br label %97

97:                                               ; preds = %93, %61
  %98 = load i32, ptr %7, align 4, !tbaa !3
  %99 = load ptr, ptr %13, align 8, !tbaa !12
  %100 = getelementptr inbounds nuw %"struct.icu_77::AlgorithmicRange", ptr %99, i32 0, i32 1
  %101 = load i32, ptr %100, align 4, !tbaa !22
  %102 = icmp ule i32 %98, %101
  br i1 %102, label %103, label %136

103:                                              ; preds = %97
  %104 = load i32, ptr %8, align 4, !tbaa !3
  %105 = load ptr, ptr %13, align 8, !tbaa !12
  %106 = getelementptr inbounds nuw %"struct.icu_77::AlgorithmicRange", ptr %105, i32 0, i32 1
  %107 = load i32, ptr %106, align 4, !tbaa !22
  %108 = add i32 %107, 1
  %109 = icmp ule i32 %104, %108
  br i1 %109, label %110, label %118

110:                                              ; preds = %103
  %111 = load ptr, ptr %13, align 8, !tbaa !12
  %112 = load i32, ptr %7, align 4, !tbaa !3
  %113 = load i32, ptr %8, align 4, !tbaa !3
  %114 = load ptr, ptr %9, align 8, !tbaa !12
  %115 = load ptr, ptr %10, align 8, !tbaa !12
  %116 = load i32, ptr %11, align 4, !tbaa !7
  %117 = call noundef signext i8 @_ZN6icu_77L12enumAlgNamesEPNS_16AlgorithmicRangeEiiPFaPvi15UCharNameChoicePKciES2_S3_(ptr noundef %111, i32 noundef %112, i32 noundef %113, ptr noundef %114, ptr noundef %115, i32 noundef %116)
  store i32 1, ptr %16, align 4
  br label %154

118:                                              ; preds = %103
  %119 = load ptr, ptr %13, align 8, !tbaa !12
  %120 = load i32, ptr %7, align 4, !tbaa !3
  %121 = load ptr, ptr %13, align 8, !tbaa !12
  %122 = getelementptr inbounds nuw %"struct.icu_77::AlgorithmicRange", ptr %121, i32 0, i32 1
  %123 = load i32, ptr %122, align 4, !tbaa !22
  %124 = add nsw i32 %123, 1
  %125 = load ptr, ptr %9, align 8, !tbaa !12
  %126 = load ptr, ptr %10, align 8, !tbaa !12
  %127 = load i32, ptr %11, align 4, !tbaa !7
  %128 = call noundef signext i8 @_ZN6icu_77L12enumAlgNamesEPNS_16AlgorithmicRangeEiiPFaPvi15UCharNameChoicePKciES2_S3_(ptr noundef %119, i32 noundef %120, i32 noundef %124, ptr noundef %125, ptr noundef %126, i32 noundef %127)
  %129 = icmp ne i8 %128, 0
  br i1 %129, label %131, label %130

130:                                              ; preds = %118
  store i32 1, ptr %16, align 4
  br label %154

131:                                              ; preds = %118
  %132 = load ptr, ptr %13, align 8, !tbaa !12
  %133 = getelementptr inbounds nuw %"struct.icu_77::AlgorithmicRange", ptr %132, i32 0, i32 1
  %134 = load i32, ptr %133, align 4, !tbaa !22
  %135 = add nsw i32 %134, 1
  store i32 %135, ptr %7, align 4, !tbaa !3
  br label %136

136:                                              ; preds = %131, %97
  %137 = load ptr, ptr %13, align 8, !tbaa !12
  %138 = load ptr, ptr %13, align 8, !tbaa !12
  %139 = getelementptr inbounds nuw %"struct.icu_77::AlgorithmicRange", ptr %138, i32 0, i32 4
  %140 = load i16, ptr %139, align 2, !tbaa !23
  %141 = zext i16 %140 to i32
  %142 = sext i32 %141 to i64
  %143 = getelementptr inbounds i8, ptr %137, i64 %142
  store ptr %143, ptr %13, align 8, !tbaa !12
  %144 = load i32, ptr %15, align 4, !tbaa !3
  %145 = add i32 %144, -1
  store i32 %145, ptr %15, align 4, !tbaa !3
  br label %58, !llvm.loop !56

146:                                              ; preds = %58
  %147 = load ptr, ptr @_ZN6icu_77L10uCharNamesE, align 8, !tbaa !12
  %148 = load i32, ptr %7, align 4, !tbaa !3
  %149 = load i32, ptr %8, align 4, !tbaa !3
  %150 = load ptr, ptr %9, align 8, !tbaa !12
  %151 = load ptr, ptr %10, align 8, !tbaa !12
  %152 = load i32, ptr %11, align 4, !tbaa !7
  %153 = call noundef signext i8 @_ZN6icu_77L9enumNamesEPNS_10UCharNamesEiiPFaPvi15UCharNameChoicePKciES2_S3_(ptr noundef %147, i32 noundef %148, i32 noundef %149, ptr noundef %150, ptr noundef %151, i32 noundef %152)
  store i32 0, ptr %16, align 4
  br label %154

154:                                              ; preds = %146, %130, %110, %92, %73, %46, %41, %31, %24
  call void @llvm.lifetime.end.p0(i64 4, ptr %15) #12
  call void @llvm.lifetime.end.p0(i64 8, ptr %14) #12
  call void @llvm.lifetime.end.p0(i64 8, ptr %13) #12
  %155 = load i32, ptr %16, align 4
  switch i32 %155, label %157 [
    i32 0, label %156
    i32 1, label %156
  ]

156:                                              ; preds = %154, %154
  ret void

157:                                              ; preds = %154
  unreachable
}