; Function Attrs: mustprogress uwtable
define void @u_enumCharNames_77(i32 noundef %0, i32 noundef %1, ptr noundef %2, ptr noundef %3, i32 noundef %4, ptr noundef %5) local_unnamed_addr #0 {
  %7 = icmp eq ptr %5, null
  br i1 %7, label %.loopexit, label %8

8:                                                ; preds = %6
  %9 = load i32, ptr %5, align 4, !tbaa !3
  %10 = icmp slt i32 %9, 1
  br i1 %10, label %11, label %.loopexit

11:                                               ; preds = %8
  %12 = icmp sgt i32 %4, 3
  %13 = icmp eq ptr %2, null
  %or.cond = or i1 %13, %12
  br i1 %or.cond, label %14, label %15

14:                                               ; preds = %11
  store i32 1, ptr %5, align 4, !tbaa !3
  br label %.loopexit

15:                                               ; preds = %11
  %spec.store.select = tail call i32 @llvm.umin.i32(i32 %1, i32 1114112)
  %.not61 = icmp ult i32 %0, %spec.store.select
  br i1 %.not61, label %16, label %.loopexit

16:                                               ; preds = %15
  %17 = tail call fastcc noundef signext i8 @_ZN6icu_77L12isDataLoadedEP10UErrorCode(ptr noundef %5)
  %.not62 = icmp eq i8 %17, 0
  br i1 %.not62, label %.loopexit, label %18

18:                                               ; preds = %16
  %19 = load ptr, ptr @_ZN6icu_77L10uCharNamesE, align 8, !tbaa !7
  %20 = getelementptr inbounds nuw i8, ptr %19, i64 12
  %21 = load i32, ptr %20, align 4, !tbaa !9
  %22 = zext i32 %21 to i64
  %23 = getelementptr inbounds nuw i8, ptr %19, i64 %22
  %24 = load i32, ptr %23, align 4, !tbaa !12
  %.not6375 = icmp eq i32 %24, 0
  br i1 %.not6375, label %._crit_edge, label %.lr.ph.preheader

.lr.ph.preheader:                                 ; preds = %18
  %25 = getelementptr inbounds nuw i8, ptr %23, i64 4
  br label %.lr.ph

.lr.ph:                                           ; preds = %.lr.ph.preheader, %48
  %.078 = phi i32 [ %53, %48 ], [ %24, %.lr.ph.preheader ]
  %.05277 = phi i32 [ %.2, %48 ], [ %0, %.lr.ph.preheader ]
  %.05376 = phi ptr [ %52, %48 ], [ %25, %.lr.ph.preheader ]
  %26 = load i32, ptr %.05376, align 4, !tbaa !13
  %27 = icmp ult i32 %.05277, %26
  br i1 %27, label %28, label %36

28:                                               ; preds = %.lr.ph
  %.not64 = icmp ugt i32 %spec.store.select, %26
  %29 = load ptr, ptr @_ZN6icu_77L10uCharNamesE, align 8, !tbaa !7
  br i1 %.not64, label %32, label %30

30:                                               ; preds = %28
  %31 = tail call fastcc noundef signext i8 @_ZN6icu_77L9enumNamesEPNS_10UCharNamesEiiPFaPvi15UCharNameChoicePKciES2_S3_(ptr noundef %29, i32 noundef %.05277, i32 noundef %spec.store.select, ptr noundef %2, ptr noundef %3, i32 noundef %4)
  br label %.loopexit

32:                                               ; preds = %28
  %33 = tail call fastcc noundef signext i8 @_ZN6icu_77L9enumNamesEPNS_10UCharNamesEiiPFaPvi15UCharNameChoicePKciES2_S3_(ptr noundef %29, i32 noundef %.05277, i32 noundef %26, ptr noundef %2, ptr noundef %3, i32 noundef %4)
  %.not65 = icmp eq i8 %33, 0
  br i1 %.not65, label %.loopexit, label %34

34:                                               ; preds = %32
  %35 = load i32, ptr %.05376, align 4, !tbaa !13
  br label %36

36:                                               ; preds = %34, %.lr.ph
  %.1 = phi i32 [ %35, %34 ], [ %.05277, %.lr.ph ]
  %37 = getelementptr inbounds nuw i8, ptr %.05376, i64 4
  %38 = load i32, ptr %37, align 4, !tbaa !16
  %.not66 = icmp ugt i32 %.1, %38
  br i1 %.not66, label %48, label %39

39:                                               ; preds = %36
  %40 = add i32 %38, 1
  %.not67 = icmp ugt i32 %spec.store.select, %40
  br i1 %.not67, label %43, label %41

41:                                               ; preds = %39
  %42 = tail call fastcc noundef signext i8 @_ZN6icu_77L12enumAlgNamesEPNS_16AlgorithmicRangeEiiPFaPvi15UCharNameChoicePKciES2_S3_(ptr noundef nonnull %.05376, i32 noundef %.1, i32 noundef %spec.store.select, ptr noundef %2, ptr noundef %3, i32 noundef %4)
  br label %.loopexit

43:                                               ; preds = %39
  %44 = tail call fastcc noundef signext i8 @_ZN6icu_77L12enumAlgNamesEPNS_16AlgorithmicRangeEiiPFaPvi15UCharNameChoicePKciES2_S3_(ptr noundef nonnull %.05376, i32 noundef %.1, i32 noundef %40, ptr noundef %2, ptr noundef %3, i32 noundef %4)
  %.not68 = icmp eq i8 %44, 0
  br i1 %.not68, label %.loopexit, label %45

45:                                               ; preds = %43
  %46 = load i32, ptr %37, align 4, !tbaa !16
  %47 = add nsw i32 %46, 1
  br label %48

48:                                               ; preds = %45, %36
  %.2 = phi i32 [ %47, %45 ], [ %.1, %36 ]
  %49 = getelementptr inbounds nuw i8, ptr %.05376, i64 10
  %50 = load i16, ptr %49, align 2, !tbaa !17
  %51 = zext i16 %50 to i64
  %52 = getelementptr inbounds nuw i8, ptr %.05376, i64 %51
  %53 = add i32 %.078, -1
  %.not63 = icmp eq i32 %53, 0
  br i1 %.not63, label %._crit_edge.loopexit, label %.lr.ph, !llvm.loop !67

._crit_edge.loopexit:                             ; preds = %48
  %.pre = load ptr, ptr @_ZN6icu_77L10uCharNamesE, align 8, !tbaa !7
  br label %._crit_edge

._crit_edge:                                      ; preds = %._crit_edge.loopexit, %18
  %54 = phi ptr [ %19, %18 ], [ %.pre, %._crit_edge.loopexit ]
  %.052.lcssa = phi i32 [ %0, %18 ], [ %.2, %._crit_edge.loopexit ]
  %55 = tail call fastcc noundef signext i8 @_ZN6icu_77L9enumNamesEPNS_10UCharNamesEiiPFaPvi15UCharNameChoicePKciES2_S3_(ptr noundef %54, i32 noundef %.052.lcssa, i32 noundef %spec.store.select, ptr noundef %2, ptr noundef %3, i32 noundef %4)
  br label %.loopexit

.loopexit:                                        ; preds = %43, %32, %16, %15, %6, %8, %._crit_edge, %41, %30, %14
  ret void
}